; Function Attrs: mustprogress nounwind uwtable
define internal fastcc { ptr, i64 } @_ZN4llvh16itanium_demangle2DbIN12_GLOBAL__N_116DefaultAllocatorEE13makeNodeArrayIPPNS0_4NodeEEENS0_9NodeArrayET_SA_(ptr nocapture noundef nonnull align 16 dereferenceable(4864) %this, ptr noundef %begin, ptr noundef %end) unnamed_addr #1 align 2 {
entry:
  %sub.ptr.lhs.cast = ptrtoint ptr %end to i64
  %sub.ptr.rhs.cast = ptrtoint ptr %begin to i64
  %sub.ptr.sub = sub i64 %sub.ptr.lhs.cast, %sub.ptr.rhs.cast
  %add.i.i = add i64 %sub.ptr.sub, 15
  %and.i.i = and i64 %add.i.i, 4294967280
  %BlockList.i.i = getelementptr inbounds i8, ptr %this, i64 4848
  %0 = load ptr, ptr %BlockList.i.i, align 16
  %Current.i.i = getelementptr inbounds i8, ptr %0, i64 8
  %1 = load i64, ptr %Current.i.i, align 8
  %add2.i.i = add i64 %1, %and.i.i
  %cmp.i.i = icmp ugt i64 %add2.i.i, 4079
  br i1 %cmp.i.i, label %if.then.i.i, label %if.end5.i.i

if.then.i.i:                                      ; preds = %entry
  %cmp3.i.i = icmp ugt i64 %and.i.i, 4080
  br i1 %cmp3.i.i, label %if.then4.i.i, label %if.end.i.i

if.then4.i.i:                                     ; preds = %if.then.i.i
  %add.i.i.i = add nuw nsw i64 %and.i.i, 16
  %call.i.i.i = tail call noalias ptr @malloc(i64 noundef %add.i.i.i) #19
  %cmp.i.i.i = icmp eq ptr %call.i.i.i, null
  br i1 %cmp.i.i.i, label %if.then.i.i.i, label %_ZN12_GLOBAL__N_120BumpPointerAllocator15allocateMassiveEm.exit.i.i

if.then.i.i.i:                                    ; preds = %if.then4.i.i
  tail call void @_ZSt9terminatev() #22
  unreachable

_ZN12_GLOBAL__N_120BumpPointerAllocator15allocateMassiveEm.exit.i.i: ; preds = %if.then4.i.i
  %2 = load ptr, ptr %0, align 8
  store ptr %2, ptr %call.i.i.i, align 8
  %Current.i.i.i = getelementptr inbounds i8, ptr %call.i.i.i, i64 8
  store i64 0, ptr %Current.i.i.i, align 8
  store ptr %call.i.i.i, ptr %0, align 8
  %add.ptr.i.i.i = getelementptr inbounds i8, ptr %call.i.i.i, i64 16
  br label %_ZN12_GLOBAL__N_116DefaultAllocator17allocateNodeArrayEm.exit

if.end.i.i:                                       ; preds = %if.then.i.i
  %call.i6.i.i = tail call noalias dereferenceable_or_null(4096) ptr @malloc(i64 noundef 4096) #19
  %cmp.i7.i.i = icmp eq ptr %call.i6.i.i, null
  br i1 %cmp.i7.i.i, label %if.then.i9.i.i, label %_ZN12_GLOBAL__N_120BumpPointerAllocator4growEv.exit.i.i

if.then.i9.i.i:                                   ; preds = %if.end.i.i
  tail call void @_ZSt9terminatev() #22
  unreachable

_ZN12_GLOBAL__N_120BumpPointerAllocator4growEv.exit.i.i: ; preds = %if.end.i.i
  store ptr %0, ptr %call.i6.i.i, align 8
  %Current.i8.i.i = getelementptr inbounds i8, ptr %call.i6.i.i, i64 8
  store i64 0, ptr %Current.i8.i.i, align 8
  store ptr %call.i6.i.i, ptr %BlockList.i.i, align 16
  br label %if.end5.i.i

if.end5.i.i:                                      ; preds = %_ZN12_GLOBAL__N_120BumpPointerAllocator4growEv.exit.i.i, %entry
  %3 = phi i64 [ 0, %_ZN12_GLOBAL__N_120BumpPointerAllocator4growEv.exit.i.i ], [ %1, %entry ]
  %4 = phi ptr [ %call.i6.i.i, %_ZN12_GLOBAL__N_120BumpPointerAllocator4growEv.exit.i.i ], [ %0, %entry ]
  %Current7.i.i = getelementptr inbounds i8, ptr %4, i64 8
  %add8.i.i = add i64 %3, %and.i.i
  store i64 %add8.i.i, ptr %Current7.i.i, align 8
  %5 = load ptr, ptr %BlockList.i.i, align 16
  %add.ptr.i.i = getelementptr inbounds i8, ptr %5, i64 16
  %Current11.i.i = getelementptr inbounds i8, ptr %5, i64 8
  %6 = load i64, ptr %Current11.i.i, align 8
  %add.ptr12.i.i = getelementptr inbounds i8, ptr %add.ptr.i.i, i64 %6
  %idx.neg.i.i = sub nsw i64 0, %and.i.i
  %add.ptr13.i.i = getelementptr inbounds i8, ptr %add.ptr12.i.i, i64 %idx.neg.i.i
  br label %_ZN12_GLOBAL__N_116DefaultAllocator17allocateNodeArrayEm.exit

_ZN12_GLOBAL__N_116DefaultAllocator17allocateNodeArrayEm.exit: ; preds = %_ZN12_GLOBAL__N_120BumpPointerAllocator15allocateMassiveEm.exit.i.i, %if.end5.i.i
  %retval.0.i.i = phi ptr [ %add.ptr.i.i.i, %_ZN12_GLOBAL__N_120BumpPointerAllocator15allocateMassiveEm.exit.i.i ], [ %add.ptr13.i.i, %if.end5.i.i ]
  %tobool.not.i.i.i.i.i = icmp eq ptr %end, %begin
  br i1 %tobool.not.i.i.i.i.i, label %_ZSt4copyIPPN4llvh16itanium_demangle4NodeES4_ET0_T_S6_S5_.exit, label %if.then.i.i.i.i.i

if.then.i.i.i.i.i:                                ; preds = %_ZN12_GLOBAL__N_116DefaultAllocator17allocateNodeArrayEm.exit
  tail call void @llvm.memmove.p0.p0.i64(ptr nonnull align 8 %retval.0.i.i, ptr align 8 %begin, i64 %sub.ptr.sub, i1 false)
  br label %_ZSt4copyIPPN4llvh16itanium_demangle4NodeES4_ET0_T_S6_S5_.exit

_ZSt4copyIPPN4llvh16itanium_demangle4NodeES4_ET0_T_S6_S5_.exit: ; preds = %_ZN12_GLOBAL__N_116DefaultAllocator17allocateNodeArrayEm.exit, %if.then.i.i.i.i.i
  %sub.ptr.div = ashr exact i64 %sub.ptr.sub, 3
  %.fca.0.insert = insertvalue { ptr, i64 } poison, ptr %retval.0.i.i, 0
  %.fca.1.insert = insertvalue { ptr, i64 } %.fca.0.insert, i64 %sub.ptr.div, 1
  ret { ptr, i64 } %.fca.1.insert
}